target datalayout = "e-m:e-p270:32:32-p271:32:32-p272:64:64-i64:64-i128:128-f80:128-n8:16:32:64-S128"
target triple = "x86_64-pc-linux-gnu"

%struct.ARKodeMemRec = type { ptr, double, ptr, i32, i32, double, double, ptr, i32, double, ptr, i32, i32, ptr, ptr, i32, ptr, ptr, i32, ptr, ptr, ptr, ptr, ptr, ptr, ptr, ptr, ptr, ptr, ptr, ptr, ptr, ptr, ptr, i32, ptr, ptr, i32, ptr, i32, ptr, ptr, ptr, ptr, ptr, ptr, ptr, ptr, ptr, ptr, ptr, ptr, ptr, ptr, ptr, ptr, ptr, ptr, ptr, ptr, ptr, ptr, ptr, ptr, ptr, ptr, i32, ptr, ptr, ptr, ptr, ptr, ptr, ptr, i32, ptr, ptr, ptr, i32, ptr, ptr, ptr, ptr, ptr, ptr, ptr, i32, i32, i32, i32, double, double, double, double, double, double, double, double, double, double, i32, ptr, i64, i32, i32, i32, i32, i64, i64, i32, i64, i64, i64, i64, i64, i64, i64, double, double, double, double, double, i32, double, double, i32, i32, i32, i32, i32, i32, i32, i32, ptr, i32, ptr, ptr, ptr, ptr, i32, i32, i32 }
%struct.ARKLsMemRec = type { i32, i32, i32, ptr, ptr, i32, i32, double, double, ptr, ptr, ptr, ptr, ptr, ptr, ptr, i64, double, i64, i64, i64, i64, i64, i64, i64, i64, i64, double, ptr, ptr, ptr, ptr, i32, ptr, ptr, ptr, ptr, i32, ptr, ptr, i32 }

; Function Attrs: nounwind uwtable
define i32 @arkLsFree(ptr noundef %0) #0 {
  %2 = alloca i32, align 4
  %3 = alloca ptr, align 8
  %4 = alloca ptr, align 8
  %5 = alloca ptr, align 8
  %6 = alloca i32, align 4
  store ptr %0, ptr %3, align 8, !tbaa !11
  call void @llvm.lifetime.start.p0(i64 8, ptr %4) #7
  call void @llvm.lifetime.start.p0(i64 8, ptr %5) #7
  %7 = load ptr, ptr %3, align 8, !tbaa !11
  %8 = icmp eq ptr %7, null
  br i1 %8, label %9, label %10

9:                                                ; preds = %1
  store i32 0, ptr %2, align 4
  store i32 1, ptr %6, align 4
  br label %72

10:                                               ; preds = %1
  %11 = load ptr, ptr %3, align 8, !tbaa !11
  %12 = getelementptr inbounds nuw %struct.ARKodeMemRec, ptr %11, i32 0, i32 42
  %13 = load ptr, ptr %12, align 8, !tbaa !41
  %14 = load ptr, ptr %3, align 8, !tbaa !11
  %15 = call ptr %13(ptr noundef %14)
  store ptr %15, ptr %5, align 8, !tbaa !3
  %16 = load ptr, ptr %5, align 8, !tbaa !3
  %17 = icmp eq ptr %16, null
  br i1 %17, label %18, label %19

18:                                               ; preds = %10
  store i32 0, ptr %2, align 4
  store i32 1, ptr %6, align 4
  br label %72

19:                                               ; preds = %10
  %20 = load ptr, ptr %5, align 8, !tbaa !3
  store ptr %20, ptr %4, align 8, !tbaa !44
  %21 = load ptr, ptr %4, align 8, !tbaa !44
  %22 = getelementptr inbounds nuw %struct.ARKLsMemRec, ptr %21, i32 0, i32 12
  %23 = load ptr, ptr %22, align 8, !tbaa !73
  %24 = icmp ne ptr %23, null
  br i1 %24, label %25, label %31

25:                                               ; preds = %19
  %26 = load ptr, ptr %4, align 8, !tbaa !44
  %27 = getelementptr inbounds nuw %struct.ARKLsMemRec, ptr %26, i32 0, i32 12
  %28 = load ptr, ptr %27, align 8, !tbaa !73
  call void @N_VDestroy(ptr noundef %28)
  %29 = load ptr, ptr %4, align 8, !tbaa !44
  %30 = getelementptr inbounds nuw %struct.ARKLsMemRec, ptr %29, i32 0, i32 12
  store ptr null, ptr %30, align 8, !tbaa !73
  br label %31

31:                                               ; preds = %25, %19
  %32 = load ptr, ptr %4, align 8, !tbaa !44
  %33 = getelementptr inbounds nuw %struct.ARKLsMemRec, ptr %32, i32 0, i32 13
  %34 = load ptr, ptr %33, align 8, !tbaa !76
  %35 = icmp ne ptr %34, null
  br i1 %35, label %36, label %42

36:                                               ; preds = %31
  %37 = load ptr, ptr %4, align 8, !tbaa !44
  %38 = getelementptr inbounds nuw %struct.ARKLsMemRec, ptr %37, i32 0, i32 13
  %39 = load ptr, ptr %38, align 8, !tbaa !76
  call void @N_VDestroy(ptr noundef %39)
  %40 = load ptr, ptr %4, align 8, !tbaa !44
  %41 = getelementptr inbounds nuw %struct.ARKLsMemRec, ptr %40, i32 0, i32 13
  store ptr null, ptr %41, align 8, !tbaa !76
  br label %42

42:                                               ; preds = %36, %31
  %43 = load ptr, ptr %4, align 8, !tbaa !44
  %44 = getelementptr inbounds nuw %struct.ARKLsMemRec, ptr %43, i32 0, i32 11
  %45 = load ptr, ptr %44, align 8, !tbaa !72
  %46 = icmp ne ptr %45, null
  br i1 %46, label %47, label %53

47:                                               ; preds = %42
  %48 = load ptr, ptr %4, align 8, !tbaa !44
  %49 = getelementptr inbounds nuw %struct.ARKLsMemRec, ptr %48, i32 0, i32 11
  %50 = load ptr, ptr %49, align 8, !tbaa !72
  call void @SUNMatDestroy(ptr noundef %50)
  %51 = load ptr, ptr %4, align 8, !tbaa !44
  %52 = getelementptr inbounds nuw %struct.ARKLsMemRec, ptr %51, i32 0, i32 11
  store ptr null, ptr %52, align 8, !tbaa !72
  br label %53

53:                                               ; preds = %47, %42
  %54 = load ptr, ptr %4, align 8, !tbaa !44
  %55 = getelementptr inbounds nuw %struct.ARKLsMemRec, ptr %54, i32 0, i32 14
  store ptr null, ptr %55, align 8, !tbaa !99
  %56 = load ptr, ptr %4, align 8, !tbaa !44
  %57 = getelementptr inbounds nuw %struct.ARKLsMemRec, ptr %56, i32 0, i32 15
  store ptr null, ptr %57, align 8, !tbaa !100
  %58 = load ptr, ptr %4, align 8, !tbaa !44
  %59 = getelementptr inbounds nuw %struct.ARKLsMemRec, ptr %58, i32 0, i32 10
  store ptr null, ptr %59, align 8, !tbaa !71
  %60 = load ptr, ptr %4, align 8, !tbaa !44
  %61 = getelementptr inbounds nuw %struct.ARKLsMemRec, ptr %60, i32 0, i32 30
  %62 = load ptr, ptr %61, align 8, !tbaa !63
  %63 = icmp ne ptr %62, null
  br i1 %63, label %64, label %70

64:                                               ; preds = %53
  %65 = load ptr, ptr %4, align 8, !tbaa !44
  %66 = getelementptr inbounds nuw %struct.ARKLsMemRec, ptr %65, i32 0, i32 30
  %67 = load ptr, ptr %66, align 8, !tbaa !63
  %68 = load ptr, ptr %3, align 8, !tbaa !11
  %69 = call i32 %67(ptr noundef %68)
  br label %70

70:                                               ; preds = %64, %53
  %71 = load ptr, ptr %4, align 8, !tbaa !44
  call void @free(ptr noundef %71) #7
  store i32 0, ptr %2, align 4
  store i32 1, ptr %6, align 4
  br label %72

72:                                               ; preds = %70, %18, %9
  call void @llvm.lifetime.end.p0(i64 8, ptr %5) #7
  call void @llvm.lifetime.end.p0(i64 8, ptr %4) #7
  %73 = load i32, ptr %2, align 4
  ret i32 %73
}