; Function Attrs: nounwind uwtable
define noundef i32 @arkLsFree(ptr noundef %0) #0 {
  %2 = icmp eq ptr %0, null
  br i1 %2, label %28, label %3

3:                                                ; preds = %1
  %4 = getelementptr inbounds nuw i8, ptr %0, i64 320
  %5 = load ptr, ptr %4, align 8, !tbaa !33
  %6 = tail call ptr %5(ptr noundef nonnull %0) #13
  %7 = icmp eq ptr %6, null
  br i1 %7, label %28, label %8

8:                                                ; preds = %3
  %9 = getelementptr inbounds nuw i8, ptr %6, i64 80
  %10 = load ptr, ptr %9, align 8, !tbaa !62
  %.not = icmp eq ptr %10, null
  br i1 %.not, label %12, label %11

11:                                               ; preds = %8
  tail call void @N_VDestroy(ptr noundef nonnull %10) #13
  store ptr null, ptr %9, align 8, !tbaa !62
  br label %12

12:                                               ; preds = %11, %8
  %13 = getelementptr inbounds nuw i8, ptr %6, i64 88
  %14 = load ptr, ptr %13, align 8, !tbaa !66
  %.not26 = icmp eq ptr %14, null
  br i1 %.not26, label %16, label %15

15:                                               ; preds = %12
  tail call void @N_VDestroy(ptr noundef nonnull %14) #13
  store ptr null, ptr %13, align 8, !tbaa !66
  br label %16

16:                                               ; preds = %15, %12
  %17 = getelementptr inbounds nuw i8, ptr %6, i64 72
  %18 = load ptr, ptr %17, align 8, !tbaa !61
  %.not27 = icmp eq ptr %18, null
  br i1 %.not27, label %20, label %19

19:                                               ; preds = %16
  tail call void @SUNMatDestroy(ptr noundef nonnull %18) #13
  store ptr null, ptr %17, align 8, !tbaa !61
  br label %20

20:                                               ; preds = %19, %16
  %21 = getelementptr inbounds nuw i8, ptr %6, i64 96
  %22 = getelementptr inbounds nuw i8, ptr %6, i64 64
  store ptr null, ptr %22, align 8, !tbaa !60
  %23 = getelementptr inbounds nuw i8, ptr %6, i64 224
  tail call void @llvm.memset.p0.i64(ptr noundef nonnull align 8 dereferenceable(16) %21, i8 0, i64 16, i1 false)
  %24 = load ptr, ptr %23, align 8, !tbaa !104
  %.not28 = icmp eq ptr %24, null
  br i1 %.not28, label %27, label %25

25:                                               ; preds = %20
  %26 = tail call i32 %24(ptr noundef nonnull %0) #13
  br label %27

27:                                               ; preds = %25, %20
  tail call void @free(ptr noundef nonnull %6) #13
  br label %28

28:                                               ; preds = %3, %1, %27
  ret i32 0
}